target datalayout = "e-m:e-p270:32:32-p271:32:32-p272:64:64-i64:64-i128:128-f80:128-n8:16:32:64-S128"
target triple = "x86_64-pc-linux-gnu"

%struct.WebPWorker = type { ptr, i32, ptr, ptr, ptr, i32 }
%struct.WebPWorkerImpl = type { %union.pthread_mutex_t, %union.pthread_cond_t, i64 }
%union.pthread_mutex_t = type { %struct.__pthread_mutex_s }
%struct.__pthread_mutex_s = type { i32, i32, i32, i32, i32, i16, i16, %struct.__pthread_internal_list }
%struct.__pthread_internal_list = type { ptr, ptr }
%union.pthread_cond_t = type { %struct.__pthread_cond_s }
%struct.__pthread_cond_s = type { %union.__atomic_wide_counter, %union.__atomic_wide_counter, [2 x i32], [2 x i32], i32, i32, [2 x i32] }
%union.__atomic_wide_counter = type { i64 }

; Function Attrs: nounwind uwtable
define internal void @ChangeState(ptr noundef %0, i32 noundef %1) #0 {
  %3 = alloca ptr, align 8
  %4 = alloca i32, align 4
  %5 = alloca ptr, align 8
  %6 = alloca i32, align 4
  store ptr %0, ptr %3, align 8, !tbaa !3
  store i32 %1, ptr %4, align 4, !tbaa !18
  call void @llvm.lifetime.start.p0(i64 8, ptr %5) #6
  %7 = load ptr, ptr %3, align 8, !tbaa !3
  %8 = getelementptr inbounds nuw %struct.WebPWorker, ptr %7, i32 0, i32 0
  %9 = load ptr, ptr %8, align 8, !tbaa !20
  store ptr %9, ptr %5, align 8, !tbaa !3
  %10 = load ptr, ptr %5, align 8, !tbaa !3
  %11 = icmp eq ptr %10, null
  br i1 %11, label %12, label %13

12:                                               ; preds = %2
  store i32 1, ptr %6, align 4
  br label %51

13:                                               ; preds = %2
  %14 = load ptr, ptr %5, align 8, !tbaa !3
  %15 = getelementptr inbounds nuw %struct.WebPWorkerImpl, ptr %14, i32 0, i32 0
  %16 = call i32 @pthread_mutex_lock(ptr noundef %15) #6
  %17 = load ptr, ptr %3, align 8, !tbaa !3
  %18 = getelementptr inbounds nuw %struct.WebPWorker, ptr %17, i32 0, i32 1
  %19 = load i32, ptr %18, align 8, !tbaa !15
  %20 = icmp uge i32 %19, 1
  br i1 %20, label %21, label %47

21:                                               ; preds = %13
  br label %22

22:                                               ; preds = %27, %21
  %23 = load ptr, ptr %3, align 8, !tbaa !3
  %24 = getelementptr inbounds nuw %struct.WebPWorker, ptr %23, i32 0, i32 1
  %25 = load i32, ptr %24, align 8, !tbaa !15
  %26 = icmp ne i32 %25, 1
  br i1 %26, label %27, label %33

27:                                               ; preds = %22
  %28 = load ptr, ptr %5, align 8, !tbaa !3
  %29 = getelementptr inbounds nuw %struct.WebPWorkerImpl, ptr %28, i32 0, i32 1
  %30 = load ptr, ptr %5, align 8, !tbaa !3
  %31 = getelementptr inbounds nuw %struct.WebPWorkerImpl, ptr %30, i32 0, i32 0
  %32 = call i32 @pthread_cond_wait(ptr noundef %29, ptr noundef %31)
  br label %22, !llvm.loop !30

33:                                               ; preds = %22
  %34 = load i32, ptr %4, align 4, !tbaa !18
  %35 = icmp ne i32 %34, 1
  br i1 %35, label %36, label %46

36:                                               ; preds = %33
  %37 = load i32, ptr %4, align 4, !tbaa !18
  %38 = load ptr, ptr %3, align 8, !tbaa !3
  %39 = getelementptr inbounds nuw %struct.WebPWorker, ptr %38, i32 0, i32 1
  store i32 %37, ptr %39, align 8, !tbaa !15
  %40 = load ptr, ptr %5, align 8, !tbaa !3
  %41 = getelementptr inbounds nuw %struct.WebPWorkerImpl, ptr %40, i32 0, i32 0
  %42 = call i32 @pthread_mutex_unlock(ptr noundef %41) #6
  %43 = load ptr, ptr %5, align 8, !tbaa !3
  %44 = getelementptr inbounds nuw %struct.WebPWorkerImpl, ptr %43, i32 0, i32 1
  %45 = call i32 @pthread_cond_signal(ptr noundef %44) #6
  store i32 1, ptr %6, align 4
  br label %51

46:                                               ; preds = %33
  br label %47

47:                                               ; preds = %46, %13
  %48 = load ptr, ptr %5, align 8, !tbaa !3
  %49 = getelementptr inbounds nuw %struct.WebPWorkerImpl, ptr %48, i32 0, i32 0
  %50 = call i32 @pthread_mutex_unlock(ptr noundef %49) #6
  store i32 0, ptr %6, align 4
  br label %51

51:                                               ; preds = %47, %36, %12
  call void @llvm.lifetime.end.p0(i64 8, ptr %5) #6
  %52 = load i32, ptr %6, align 4
  switch i32 %52, label %54 [
    i32 0, label %53
    i32 1, label %53
  ]

53:                                               ; preds = %51, %51
  ret void

54:                                               ; preds = %51
  unreachable
}

; Function Attrs: nounwind uwtable
define internal void @End(ptr noundef %0) #0 {
  %2 = alloca ptr, align 8
  %3 = alloca ptr, align 8
  store ptr %0, ptr %2, align 8, !tbaa !3
  %4 = load ptr, ptr %2, align 8, !tbaa !3
  %5 = getelementptr inbounds nuw %struct.WebPWorker, ptr %4, i32 0, i32 0
  %6 = load ptr, ptr %5, align 8, !tbaa !20
  %7 = icmp ne ptr %6, null
  br i1 %7, label %8, label %26

8:                                                ; preds = %1
  call void @llvm.lifetime.start.p0(i64 8, ptr %3) #6
  %9 = load ptr, ptr %2, align 8, !tbaa !3
  %10 = getelementptr inbounds nuw %struct.WebPWorker, ptr %9, i32 0, i32 0
  %11 = load ptr, ptr %10, align 8, !tbaa !20
  store ptr %11, ptr %3, align 8, !tbaa !3
  %12 = load ptr, ptr %2, align 8, !tbaa !3
  call void @ChangeState(ptr noundef %12, i32 noundef 0)
  %13 = load ptr, ptr %3, align 8, !tbaa !3
  %14 = getelementptr inbounds nuw %struct.WebPWorkerImpl, ptr %13, i32 0, i32 2
  %15 = load i64, ptr %14, align 8, !tbaa !24
  %16 = call i32 @pthread_join(i64 noundef %15, ptr noundef null)
  %17 = load ptr, ptr %3, align 8, !tbaa !3
  %18 = getelementptr inbounds nuw %struct.WebPWorkerImpl, ptr %17, i32 0, i32 0
  %19 = call i32 @pthread_mutex_destroy(ptr noundef %18) #6
  %20 = load ptr, ptr %3, align 8, !tbaa !3
  %21 = getelementptr inbounds nuw %struct.WebPWorkerImpl, ptr %20, i32 0, i32 1
  %22 = call i32 @pthread_cond_destroy(ptr noundef %21) #6
  %23 = load ptr, ptr %3, align 8, !tbaa !3
  call void @WebPSafeFree(ptr noundef %23)
  %24 = load ptr, ptr %2, align 8, !tbaa !3
  %25 = getelementptr inbounds nuw %struct.WebPWorker, ptr %24, i32 0, i32 0
  store ptr null, ptr %25, align 8, !tbaa !20
  call void @llvm.lifetime.end.p0(i64 8, ptr %3) #6
  br label %26

26:                                               ; preds = %8, %1
  ret void
}