; Function Attrs: nounwind uwtable
define internal void @End(ptr noundef captures(none) %0) #4 {
  %2 = load ptr, ptr %0, align 8, !tbaa !19
  %.not = icmp eq ptr %2, null
  br i1 %.not, label %21, label %3

3:                                                ; preds = %1
  %4 = tail call i32 @pthread_mutex_lock(ptr noundef nonnull %2) #8
  %5 = getelementptr inbounds nuw i8, ptr %0, i64 8
  %6 = load i32, ptr %5, align 8, !tbaa !18
  switch i32 %6, label %.lr.ph.i [
    i32 0, label %13
    i32 1, label %._crit_edge.i
  ]

.lr.ph.i:                                         ; preds = %3
  %7 = getelementptr inbounds nuw i8, ptr %2, i64 40
  br label %8

8:                                                ; preds = %8, %.lr.ph.i
  %9 = tail call i32 @pthread_cond_wait(ptr noundef nonnull %7, ptr noundef nonnull %2) #8
  %.pr.i = load i32, ptr %5, align 8, !tbaa !18
  %.not13.i = icmp eq i32 %.pr.i, 1
  br i1 %.not13.i, label %._crit_edge.i, label %8, !llvm.loop !20

._crit_edge.i:                                    ; preds = %8, %3
  store i32 0, ptr %5, align 8, !tbaa !18
  %10 = tail call i32 @pthread_mutex_unlock(ptr noundef nonnull %2) #8
  %11 = getelementptr inbounds nuw i8, ptr %2, i64 40
  %12 = tail call i32 @pthread_cond_signal(ptr noundef nonnull %11) #8
  br label %ChangeState.exit

13:                                               ; preds = %3
  %14 = tail call i32 @pthread_mutex_unlock(ptr noundef nonnull %2) #8
  br label %ChangeState.exit

ChangeState.exit:                                 ; preds = %._crit_edge.i, %13
  %15 = getelementptr inbounds nuw i8, ptr %2, i64 88
  %16 = load i64, ptr %15, align 8, !tbaa !25
  %17 = tail call i32 @pthread_join(i64 noundef %16, ptr noundef null) #8
  %18 = tail call i32 @pthread_mutex_destroy(ptr noundef nonnull %2) #8
  %19 = getelementptr inbounds nuw i8, ptr %2, i64 40
  %20 = tail call i32 @pthread_cond_destroy(ptr noundef nonnull %19) #8
  tail call void @WebPSafeFree(ptr noundef nonnull %2) #8
  store ptr null, ptr %0, align 8, !tbaa !19
  br label %21

21:                                               ; preds = %ChangeState.exit, %1
  ret void
}